; Function Attrs: mustprogress uwtable
define internal fastcc void @_ZN10open_spiel4json12_GLOBAL__N_16EscapeERKNSt7__cxx1112basic_stringIcSt11char_traitsIcESaIcEEE(ptr dead_on_unwind noalias nonnull writable align 8 %0, ptr noundef nonnull align 8 dereferenceable(32) %1) unnamed_addr #4 personality ptr @__gxx_personality_v0 {
  tail call void @_ZNSt7__cxx1112basic_stringIcSt11char_traitsIcESaIcEEC1Ev(ptr noundef nonnull align 8 dereferenceable(32) %0) #22
  %3 = tail call noundef i64 @_ZNKSt7__cxx1112basic_stringIcSt11char_traitsIcESaIcEE6lengthEv(ptr noundef nonnull align 8 dereferenceable(32) %1) #22
  invoke void @_ZNSt7__cxx1112basic_stringIcSt11char_traitsIcESaIcEE7reserveEm(ptr noundef nonnull align 8 dereferenceable(32) %0, i64 noundef %3)
          to label %4 unwind label %.loopexit.split-lp

4:                                                ; preds = %2
  %5 = tail call ptr @_ZNKSt7__cxx1112basic_stringIcSt11char_traitsIcESaIcEE5beginEv(ptr noundef nonnull align 8 dereferenceable(32) %1) #22
  %6 = tail call ptr @_ZNKSt7__cxx1112basic_stringIcSt11char_traitsIcESaIcEE3endEv(ptr noundef nonnull align 8 dereferenceable(32) %1) #22
  %.not11 = icmp eq ptr %5, %6
  br i1 %.not11, label %._crit_edge, label %.lr.ph

.lr.ph:                                           ; preds = %4, %18
  %.sroa.08.012 = phi ptr [ %19, %18 ], [ %5, %4 ]
  %7 = load i8, ptr %.sroa.08.012, align 1
  switch i8 %7, label %17 [
    i8 34, label %.invoke
    i8 92, label %11
    i8 8, label %12
    i8 12, label %13
    i8 10, label %14
    i8 13, label %15
    i8 9, label %16
  ]

.loopexit:                                        ; preds = %.invoke, %17
  %lpad.loopexit = landingpad { ptr, i32 }
          cleanup
  br label %8

.loopexit.split-lp:                               ; preds = %2
  %lpad.loopexit.split-lp = landingpad { ptr, i32 }
          cleanup
  br label %8

8:                                                ; preds = %.loopexit.split-lp, %.loopexit
  %lpad.phi = phi { ptr, i32 } [ %lpad.loopexit, %.loopexit ], [ %lpad.loopexit.split-lp, %.loopexit.split-lp ]
  tail call void @_ZNSt7__cxx1112basic_stringIcSt11char_traitsIcESaIcEED1Ev(ptr noundef nonnull align 8 dereferenceable(32) %0) #22
  resume { ptr, i32 } %lpad.phi

.invoke:                                          ; preds = %.lr.ph, %16, %15, %14, %13, %12, %11
  %9 = phi ptr [ @.str.14, %11 ], [ @.str.15, %12 ], [ @.str.16, %13 ], [ @.str.17, %14 ], [ @.str.18, %15 ], [ @.str.19, %16 ], [ @.str.13, %.lr.ph ]
  %10 = invoke noundef nonnull align 8 dereferenceable(32) ptr @_ZNSt7__cxx1112basic_stringIcSt11char_traitsIcESaIcEE6appendEPKc(ptr noundef nonnull align 8 dereferenceable(32) %0, ptr noundef nonnull %9)
          to label %18 unwind label %.loopexit

11:                                               ; preds = %.lr.ph
  br label %.invoke

12:                                               ; preds = %.lr.ph
  br label %.invoke

13:                                               ; preds = %.lr.ph
  br label %.invoke

14:                                               ; preds = %.lr.ph
  br label %.invoke

15:                                               ; preds = %.lr.ph
  br label %.invoke

16:                                               ; preds = %.lr.ph
  br label %.invoke

17:                                               ; preds = %.lr.ph
  invoke void @_ZNSt7__cxx1112basic_stringIcSt11char_traitsIcESaIcEE9push_backEc(ptr noundef nonnull align 8 dereferenceable(32) %0, i8 noundef signext %7)
          to label %18 unwind label %.loopexit

18:                                               ; preds = %.invoke, %17
  %19 = getelementptr inbounds i8, ptr %.sroa.08.012, i64 1
  %.not = icmp eq ptr %19, %6
  br i1 %.not, label %._crit_edge, label %.lr.ph

._crit_edge:                                      ; preds = %18, %4
  ret void
}